target datalayout = "e-m:e-p270:32:32-p271:32:32-p272:64:64-i64:64-i128:128-f80:128-n8:16:32:64-S128"
target triple = "x86_64-pc-linux-gnu"

; Function Attrs: mustprogress uwtable
define i32 @zmq_connect_peer(ptr noundef %0, ptr noundef %1) #1 {
  %3 = alloca i32, align 4
  %4 = alloca ptr, align 8
  %5 = alloca ptr, align 8
  %6 = alloca ptr, align 8
  %7 = alloca i32, align 4
  %8 = alloca i32, align 4
  %9 = alloca i64, align 8
  store ptr %0, ptr %4, align 8, !tbaa !12
  store ptr %1, ptr %5, align 8, !tbaa !19
  call void @llvm.lifetime.start.p0(i64 8, ptr %6) #20
  %10 = load ptr, ptr %4, align 8, !tbaa !12
  store ptr %10, ptr %6, align 8, !tbaa !21
  %11 = load ptr, ptr %4, align 8, !tbaa !12
  %12 = icmp ne ptr %11, null
  br i1 %12, label %13, label %16

13:                                               ; preds = %2
  %14 = load ptr, ptr %6, align 8, !tbaa !21
  %15 = call noundef zeroext i1 @_ZNK3zmq13socket_base_t9check_tagEv(ptr noundef nonnull align 8 dereferenceable(1825) %14)
  br i1 %15, label %18, label %16

16:                                               ; preds = %13, %2
  %17 = call ptr @__errno_location() #19
  store i32 88, ptr %17, align 4, !tbaa !8
  store i32 0, ptr %3, align 4
  store i32 1, ptr %7, align 4
  br label %33

18:                                               ; preds = %13
  call void @llvm.lifetime.start.p0(i64 4, ptr %8) #20
  call void @llvm.lifetime.start.p0(i64 8, ptr %9) #20
  store i64 4, ptr %9, align 8, !tbaa !13
  %19 = load ptr, ptr %6, align 8, !tbaa !21
  %20 = call noundef i32 @_ZN3zmq13socket_base_t10getsockoptEiPvPm(ptr noundef nonnull align 8 dereferenceable(1825) %19, i32 noundef 16, ptr noundef %8, ptr noundef %9)
  %21 = icmp ne i32 %20, 0
  br i1 %21, label %22, label %23

22:                                               ; preds = %18
  store i32 0, ptr %3, align 4
  store i32 1, ptr %7, align 4
  br label %32

23:                                               ; preds = %18
  %24 = load i32, ptr %8, align 4, !tbaa !8
  %25 = icmp ne i32 %24, 19
  br i1 %25, label %26, label %28

26:                                               ; preds = %23
  %27 = call ptr @__errno_location() #19
  store i32 95, ptr %27, align 4, !tbaa !8
  store i32 0, ptr %3, align 4
  store i32 1, ptr %7, align 4
  br label %32

28:                                               ; preds = %23
  %29 = load ptr, ptr %6, align 8, !tbaa !21
  %30 = load ptr, ptr %5, align 8, !tbaa !19
  %31 = call noundef i32 @_ZN3zmq6peer_t12connect_peerEPKc(ptr noundef nonnull align 8 dereferenceable(1936) %29, ptr noundef %30)
  store i32 %31, ptr %3, align 4
  store i32 1, ptr %7, align 4
  br label %32

32:                                               ; preds = %28, %26, %22
  call void @llvm.lifetime.end.p0(i64 8, ptr %9) #20
  call void @llvm.lifetime.end.p0(i64 4, ptr %8) #20
  br label %33

33:                                               ; preds = %32, %16
  call void @llvm.lifetime.end.p0(i64 8, ptr %6) #20
  %34 = load i32, ptr %3, align 4
  ret i32 %34
}