; Function Attrs: mustprogress uwtable
define noundef i32 @zmq_connect_peer(ptr noundef %0, ptr noundef %1) local_unnamed_addr #1 {
  %3 = alloca i32, align 4
  %4 = alloca i64, align 8
  %.not = icmp eq ptr %0, null
  br i1 %.not, label %7, label %5

5:                                                ; preds = %2
  %6 = tail call noundef zeroext i1 @_ZNK3zmq13socket_base_t9check_tagEv(ptr noundef nonnull align 8 dereferenceable(1825) %0)
  br i1 %6, label %9, label %7

7:                                                ; preds = %5, %2
  %8 = tail call ptr @__errno_location() #20
  store i32 88, ptr %8, align 4, !tbaa !3
  br label %18

9:                                                ; preds = %5
  call void @llvm.lifetime.start.p0(i64 4, ptr nonnull %3) #22
  call void @llvm.lifetime.start.p0(i64 8, ptr nonnull %4) #22
  store i64 4, ptr %4, align 8, !tbaa !7
  %10 = call noundef i32 @_ZN3zmq13socket_base_t10getsockoptEiPvPm(ptr noundef nonnull align 8 dereferenceable(1825) %0, i32 noundef 16, ptr noundef nonnull %3, ptr noundef nonnull %4)
  %.not7 = icmp eq i32 %10, 0
  br i1 %.not7, label %11, label %17

11:                                               ; preds = %9
  %12 = load i32, ptr %3, align 4, !tbaa !3
  %.not8 = icmp eq i32 %12, 19
  br i1 %.not8, label %15, label %13

13:                                               ; preds = %11
  %14 = tail call ptr @__errno_location() #20
  store i32 95, ptr %14, align 4, !tbaa !3
  br label %17

15:                                               ; preds = %11
  %16 = call noundef i32 @_ZN3zmq6peer_t12connect_peerEPKc(ptr noundef nonnull align 8 dereferenceable(1936) %0, ptr noundef %1)
  br label %17

17:                                               ; preds = %9, %15, %13
  %.1 = phi i32 [ 0, %13 ], [ %16, %15 ], [ 0, %9 ]
  call void @llvm.lifetime.end.p0(i64 8, ptr nonnull %4) #22
  call void @llvm.lifetime.end.p0(i64 4, ptr nonnull %3) #22
  br label %18

18:                                               ; preds = %17, %7
  %.0 = phi i32 [ %.1, %17 ], [ 0, %7 ]
  ret i32 %.0
}